target datalayout = "e-m:e-p270:32:32-p271:32:32-p272:64:64-i64:64-i128:128-f80:128-n8:16:32:64-S128"
target triple = "x86_64-pc-linux-gnu"

@.str.37 = private unnamed_addr constant [19 x i8] c"N_VGetArrayPointer\00", align 1
@stderr = external global ptr, align 8
@.str.39 = private unnamed_addr constant [55 x i8] c"\0ASUNDIALS_ERROR: %s() failed - returned NULL pointer\0A\0A\00", align 1
@.str.40 = private unnamed_addr constant [46 x i8] c"\0ASUNDIALS_ERROR: %s() failed with flag = %d\0A\0A\00", align 1
@.str.41 = private unnamed_addr constant [53 x i8] c"\0AMEMORY_ERROR: %s() failed - returned NULL pointer\0A\0A\00", align 1

; Function Attrs: nounwind uwtable
define internal i32 @check_flag(ptr noundef %0, ptr noundef %1, i32 noundef %2) #0 {
  %4 = alloca i32, align 4
  %5 = alloca ptr, align 8
  %6 = alloca ptr, align 8
  %7 = alloca i32, align 4
  %8 = alloca ptr, align 8
  %9 = alloca i32, align 4
  store ptr %0, ptr %5, align 8, !tbaa !8
  store ptr %1, ptr %6, align 8, !tbaa !29
  store i32 %2, ptr %7, align 4, !tbaa !12
  call void @llvm.lifetime.start.p0(i64 8, ptr %8) #7
  %10 = load i32, ptr %7, align 4, !tbaa !12
  %11 = icmp eq i32 %10, 0
  br i1 %11, label %12, label %19

12:                                               ; preds = %3
  %13 = load ptr, ptr %5, align 8, !tbaa !8
  %14 = icmp eq ptr %13, null
  br i1 %14, label %15, label %19

15:                                               ; preds = %12
  %16 = load ptr, ptr @stderr, align 8, !tbaa !27
  %17 = load ptr, ptr %6, align 8, !tbaa !29
  %18 = call i32 (ptr, ptr, ...) @fprintf(ptr noundef %16, ptr noundef @.str.39, ptr noundef %17) #7
  store i32 1, ptr %4, align 4
  store i32 1, ptr %9, align 4
  br label %47

19:                                               ; preds = %12, %3
  %20 = load i32, ptr %7, align 4, !tbaa !12
  %21 = icmp eq i32 %20, 1
  br i1 %21, label %22, label %34

22:                                               ; preds = %19
  %23 = load ptr, ptr %5, align 8, !tbaa !8
  store ptr %23, ptr %8, align 8, !tbaa !31
  %24 = load ptr, ptr %8, align 8, !tbaa !31
  %25 = load i32, ptr %24, align 4, !tbaa !12
  %26 = icmp slt i32 %25, 0
  br i1 %26, label %27, label %33

27:                                               ; preds = %22
  %28 = load ptr, ptr @stderr, align 8, !tbaa !27
  %29 = load ptr, ptr %6, align 8, !tbaa !29
  %30 = load ptr, ptr %8, align 8, !tbaa !31
  %31 = load i32, ptr %30, align 4, !tbaa !12
  %32 = call i32 (ptr, ptr, ...) @fprintf(ptr noundef %28, ptr noundef @.str.40, ptr noundef %29, i32 noundef %31) #7
  store i32 1, ptr %4, align 4
  store i32 1, ptr %9, align 4
  br label %47

33:                                               ; preds = %22
  br label %45

34:                                               ; preds = %19
  %35 = load i32, ptr %7, align 4, !tbaa !12
  %36 = icmp eq i32 %35, 2
  br i1 %36, label %37, label %44

37:                                               ; preds = %34
  %38 = load ptr, ptr %5, align 8, !tbaa !8
  %39 = icmp eq ptr %38, null
  br i1 %39, label %40, label %44

40:                                               ; preds = %37
  %41 = load ptr, ptr @stderr, align 8, !tbaa !27
  %42 = load ptr, ptr %6, align 8, !tbaa !29
  %43 = call i32 (ptr, ptr, ...) @fprintf(ptr noundef %41, ptr noundef @.str.41, ptr noundef %42) #7
  store i32 1, ptr %4, align 4
  store i32 1, ptr %9, align 4
  br label %47

44:                                               ; preds = %37, %34
  br label %45

45:                                               ; preds = %44, %33
  br label %46

46:                                               ; preds = %45
  store i32 0, ptr %4, align 4
  store i32 1, ptr %9, align 4
  br label %47

47:                                               ; preds = %46, %40, %27, %15
  call void @llvm.lifetime.end.p0(i64 8, ptr %8) #7
  %48 = load i32, ptr %4, align 4
  ret i32 %48
}

; Function Attrs: nounwind uwtable
define internal i32 @project(i64 noundef %0, ptr noundef %1, ptr noundef %2, i64 noundef %3, ptr noundef %4, ptr noundef %5) #0 {
  %7 = alloca i32, align 4
  %8 = alloca i64, align 8
  %9 = alloca ptr, align 8
  %10 = alloca ptr, align 8
  %11 = alloca i64, align 8
  %12 = alloca ptr, align 8
  %13 = alloca ptr, align 8
  %14 = alloca i64, align 8
  %15 = alloca i64, align 8
  %16 = alloca i64, align 8
  %17 = alloca ptr, align 8
  %18 = alloca ptr, align 8
  %19 = alloca i32, align 4
  store i64 %0, ptr %8, align 8, !tbaa !10
  store ptr %1, ptr %9, align 8, !tbaa !18
  store ptr %2, ptr %10, align 8, !tbaa !14
  store i64 %3, ptr %11, align 8, !tbaa !10
  store ptr %4, ptr %12, align 8, !tbaa !18
  store ptr %5, ptr %13, align 8, !tbaa !14
  call void @llvm.lifetime.start.p0(i64 8, ptr %14) #7
  call void @llvm.lifetime.start.p0(i64 8, ptr %15) #7
  call void @llvm.lifetime.start.p0(i64 8, ptr %16) #7
  call void @llvm.lifetime.start.p0(i64 8, ptr %17) #7
  store ptr null, ptr %17, align 8, !tbaa !18
  call void @llvm.lifetime.start.p0(i64 8, ptr %18) #7
  store ptr null, ptr %18, align 8, !tbaa !18
  %20 = load ptr, ptr %10, align 8, !tbaa !14
  %21 = call ptr @N_VGetArrayPointer(ptr noundef %20)
  store ptr %21, ptr %17, align 8, !tbaa !18
  %22 = load ptr, ptr %17, align 8, !tbaa !18
  %23 = call i32 @check_flag(ptr noundef %22, ptr noundef @.str.37, i32 noundef 0)
  %24 = icmp ne i32 %23, 0
  br i1 %24, label %25, label %26

25:                                               ; preds = %6
  store i32 1, ptr %7, align 4
  store i32 1, ptr %19, align 4
  br label %135

26:                                               ; preds = %6
  %27 = load ptr, ptr %13, align 8, !tbaa !14
  %28 = call ptr @N_VGetArrayPointer(ptr noundef %27)
  store ptr %28, ptr %18, align 8, !tbaa !18
  %29 = load ptr, ptr %18, align 8, !tbaa !18
  %30 = call i32 @check_flag(ptr noundef %29, ptr noundef @.str.37, i32 noundef 0)
  %31 = icmp ne i32 %30, 0
  br i1 %31, label %32, label %33

32:                                               ; preds = %26
  store i32 1, ptr %7, align 4
  store i32 1, ptr %19, align 4
  br label %135

33:                                               ; preds = %26
  store i64 0, ptr %14, align 8, !tbaa !10
  store i64 0, ptr %15, align 8, !tbaa !10
  br label %34

34:                                               ; preds = %131, %33
  %35 = load i64, ptr %15, align 8, !tbaa !10
  %36 = load i64, ptr %11, align 8, !tbaa !10
  %37 = icmp slt i64 %35, %36
  br i1 %37, label %38, label %134

38:                                               ; preds = %34
  %39 = load i64, ptr %14, align 8, !tbaa !10
  store i64 %39, ptr %16, align 8, !tbaa !10
  br label %40

40:                                               ; preds = %71, %38
  %41 = load i64, ptr %16, align 8, !tbaa !10
  %42 = load i64, ptr %8, align 8, !tbaa !10
  %43 = sub nsw i64 %42, 1
  %44 = icmp slt i64 %41, %43
  br i1 %44, label %45, label %74

45:                                               ; preds = %40
  %46 = load ptr, ptr %12, align 8, !tbaa !18
  %47 = load i64, ptr %15, align 8, !tbaa !10
  %48 = getelementptr inbounds double, ptr %46, i64 %47
  %49 = load double, ptr %48, align 8, !tbaa !4
  %50 = load ptr, ptr %9, align 8, !tbaa !18
  %51 = load i64, ptr %16, align 8, !tbaa !10
  %52 = getelementptr inbounds double, ptr %50, i64 %51
  %53 = load double, ptr %52, align 8, !tbaa !4
  %54 = fcmp oge double %49, %53
  br i1 %54, label %55, label %68

55:                                               ; preds = %45
  %56 = load ptr, ptr %12, align 8, !tbaa !18
  %57 = load i64, ptr %15, align 8, !tbaa !10
  %58 = getelementptr inbounds double, ptr %56, i64 %57
  %59 = load double, ptr %58, align 8, !tbaa !4
  %60 = load ptr, ptr %9, align 8, !tbaa !18
  %61 = load i64, ptr %16, align 8, !tbaa !10
  %62 = add nsw i64 %61, 1
  %63 = getelementptr inbounds double, ptr %60, i64 %62
  %64 = load double, ptr %63, align 8, !tbaa !4
  %65 = fcmp ole double %59, %64
  br i1 %65, label %66, label %68

66:                                               ; preds = %55
  %67 = load i64, ptr %16, align 8, !tbaa !10
  store i64 %67, ptr %14, align 8, !tbaa !10
  br label %74

68:                                               ; preds = %55, %45
  %69 = load i64, ptr %8, align 8, !tbaa !10
  %70 = sub nsw i64 %69, 1
  store i64 %70, ptr %14, align 8, !tbaa !10
  br label %71

71:                                               ; preds = %68
  %72 = load i64, ptr %16, align 8, !tbaa !10
  %73 = add nsw i64 %72, 1
  store i64 %73, ptr %16, align 8, !tbaa !10
  br label %40

74:                                               ; preds = %66, %40
  %75 = load ptr, ptr %17, align 8, !tbaa !18
  %76 = load i64, ptr %14, align 8, !tbaa !10
  %77 = getelementptr inbounds double, ptr %75, i64 %76
  %78 = load double, ptr %77, align 8, !tbaa !4
  %79 = load ptr, ptr %12, align 8, !tbaa !18
  %80 = load i64, ptr %15, align 8, !tbaa !10
  %81 = getelementptr inbounds double, ptr %79, i64 %80
  %82 = load double, ptr %81, align 8, !tbaa !4
  %83 = load ptr, ptr %9, align 8, !tbaa !18
  %84 = load i64, ptr %14, align 8, !tbaa !10
  %85 = add nsw i64 %84, 1
  %86 = getelementptr inbounds double, ptr %83, i64 %85
  %87 = load double, ptr %86, align 8, !tbaa !4
  %88 = fsub double %82, %87
  %89 = fmul double %78, %88
  %90 = load ptr, ptr %9, align 8, !tbaa !18
  %91 = load i64, ptr %14, align 8, !tbaa !10
  %92 = getelementptr inbounds double, ptr %90, i64 %91
  %93 = load double, ptr %92, align 8, !tbaa !4
  %94 = load ptr, ptr %9, align 8, !tbaa !18
  %95 = load i64, ptr %14, align 8, !tbaa !10
  %96 = add nsw i64 %95, 1
  %97 = getelementptr inbounds double, ptr %94, i64 %96
  %98 = load double, ptr %97, align 8, !tbaa !4
  %99 = fsub double %93, %98
  %100 = fdiv double %89, %99
  %101 = load ptr, ptr %17, align 8, !tbaa !18
  %102 = load i64, ptr %14, align 8, !tbaa !10
  %103 = add nsw i64 %102, 1
  %104 = getelementptr inbounds double, ptr %101, i64 %103
  %105 = load double, ptr %104, align 8, !tbaa !4
  %106 = load ptr, ptr %12, align 8, !tbaa !18
  %107 = load i64, ptr %15, align 8, !tbaa !10
  %108 = getelementptr inbounds double, ptr %106, i64 %107
  %109 = load double, ptr %108, align 8, !tbaa !4
  %110 = load ptr, ptr %9, align 8, !tbaa !18
  %111 = load i64, ptr %14, align 8, !tbaa !10
  %112 = getelementptr inbounds double, ptr %110, i64 %111
  %113 = load double, ptr %112, align 8, !tbaa !4
  %114 = fsub double %109, %113
  %115 = fmul double %105, %114
  %116 = load ptr, ptr %9, align 8, !tbaa !18
  %117 = load i64, ptr %14, align 8, !tbaa !10
  %118 = add nsw i64 %117, 1
  %119 = getelementptr inbounds double, ptr %116, i64 %118
  %120 = load double, ptr %119, align 8, !tbaa !4
  %121 = load ptr, ptr %9, align 8, !tbaa !18
  %122 = load i64, ptr %14, align 8, !tbaa !10
  %123 = getelementptr inbounds double, ptr %121, i64 %122
  %124 = load double, ptr %123, align 8, !tbaa !4
  %125 = fsub double %120, %124
  %126 = fdiv double %115, %125
  %127 = fadd double %100, %126
  %128 = load ptr, ptr %18, align 8, !tbaa !18
  %129 = load i64, ptr %15, align 8, !tbaa !10
  %130 = getelementptr inbounds double, ptr %128, i64 %129
  store double %127, ptr %130, align 8, !tbaa !4
  br label %131

131:                                              ; preds = %74
  %132 = load i64, ptr %15, align 8, !tbaa !10
  %133 = add nsw i64 %132, 1
  store i64 %133, ptr %15, align 8, !tbaa !10
  br label %34

134:                                              ; preds = %34
  store i32 0, ptr %7, align 4
  store i32 1, ptr %19, align 4
  br label %135

135:                                              ; preds = %134, %32, %25
  call void @llvm.lifetime.end.p0(i64 8, ptr %18) #7
  call void @llvm.lifetime.end.p0(i64 8, ptr %17) #7
  call void @llvm.lifetime.end.p0(i64 8, ptr %16) #7
  call void @llvm.lifetime.end.p0(i64 8, ptr %15) #7
  call void @llvm.lifetime.end.p0(i64 8, ptr %14) #7
  %136 = load i32, ptr %7, align 4
  ret i32 %136
}