; Function Attrs: nounwind uwtable
define internal fastcc void @project(i64 noundef %0, ptr noundef readonly captures(none) %1, ptr noundef %2, i64 noundef %3, ptr noundef readonly captures(none) %4, ptr noundef %5) unnamed_addr #0 {
  %7 = tail call ptr @N_VGetArrayPointer(ptr noundef %2) #11
  %8 = icmp eq ptr %7, null
  br i1 %8, label %.loopexit.sink.split, label %9

9:                                                ; preds = %6
  %10 = tail call ptr @N_VGetArrayPointer(ptr noundef %5) #11
  %11 = icmp eq ptr %10, null
  br i1 %11, label %.loopexit.sink.split, label %check_flag.exit50.preheader

check_flag.exit50.preheader:                      ; preds = %9
  %12 = icmp sgt i64 %3, 0
  br i1 %12, label %.preheader.lr.ph, label %.loopexit

.preheader.lr.ph:                                 ; preds = %check_flag.exit50.preheader
  %13 = add nsw i64 %0, -1
  br label %.preheader

.preheader:                                       ; preds = %.preheader.lr.ph, %check_flag.exit50
  %.04359 = phi i64 [ 0, %.preheader.lr.ph ], [ %45, %check_flag.exit50 ]
  %.04458 = phi i64 [ 0, %.preheader.lr.ph ], [ %.2, %check_flag.exit50 ]
  %14 = icmp slt i64 %.04458, %13
  %15 = getelementptr inbounds nuw double, ptr %4, i64 %.04359
  %16 = load double, ptr %15, align 8, !tbaa !17
  br i1 %14, label %.lr.ph, label %check_flag.exit50

.lr.ph:                                           ; preds = %.preheader, %24
  %.055 = phi i64 [ %25, %24 ], [ %.04458, %.preheader ]
  %17 = getelementptr inbounds nuw double, ptr %1, i64 %.055
  %18 = load double, ptr %17, align 8, !tbaa !17
  %19 = fcmp ult double %16, %18
  br i1 %19, label %24, label %20

20:                                               ; preds = %.lr.ph
  %21 = getelementptr i8, ptr %17, i64 8
  %22 = load double, ptr %21, align 8, !tbaa !17
  %23 = fcmp ugt double %16, %22
  br i1 %23, label %24, label %check_flag.exit50

24:                                               ; preds = %20, %.lr.ph
  %25 = add i64 %.055, 1
  %exitcond.not = icmp eq i64 %25, %13
  br i1 %exitcond.not, label %check_flag.exit50, label %.lr.ph

check_flag.exit50:                                ; preds = %24, %20, %.preheader
  %.2 = phi i64 [ %.04458, %.preheader ], [ %.055, %20 ], [ %13, %24 ]
  %26 = getelementptr inbounds nuw double, ptr %7, i64 %.2
  %27 = load double, ptr %26, align 8, !tbaa !17
  %28 = add nuw nsw i64 %.2, 1
  %29 = getelementptr inbounds nuw double, ptr %1, i64 %28
  %30 = load double, ptr %29, align 8, !tbaa !17
  %31 = fsub double %16, %30
  %32 = fmul double %27, %31
  %33 = getelementptr inbounds nuw double, ptr %1, i64 %.2
  %34 = load double, ptr %33, align 8, !tbaa !17
  %35 = fsub double %34, %30
  %36 = fdiv double %32, %35
  %37 = getelementptr inbounds nuw double, ptr %7, i64 %28
  %38 = load double, ptr %37, align 8, !tbaa !17
  %39 = fsub double %16, %34
  %40 = fmul double %38, %39
  %41 = fsub double %30, %34
  %42 = fdiv double %40, %41
  %43 = fadd double %36, %42
  %44 = getelementptr inbounds nuw double, ptr %10, i64 %.04359
  store double %43, ptr %44, align 8, !tbaa !17
  %45 = add nuw nsw i64 %.04359, 1
  %exitcond60.not = icmp eq i64 %45, %3
  br i1 %exitcond60.not, label %.loopexit, label %.preheader

.loopexit.sink.split:                             ; preds = %9, %6
  %46 = load ptr, ptr @stderr, align 8, !tbaa !4
  %47 = tail call i32 (ptr, ptr, ...) @fprintf(ptr noundef %46, ptr noundef nonnull @.str.39, ptr noundef nonnull @.str.37) #12
  br label %.loopexit

.loopexit:                                        ; preds = %check_flag.exit50, %.loopexit.sink.split, %check_flag.exit50.preheader
  ret void
}